target datalayout = "e-m:e-p270:32:32-p271:32:32-p272:64:64-i64:64-i128:128-f80:128-n8:16:32:64-S128"
target triple = "x86_64-pc-linux-gnu"

%"class.std::basic_ostream" = type { ptr, %"class.std::basic_ios" }
%"class.std::basic_ios" = type { %"class.std::ios_base", ptr, i8, i8, ptr, ptr, ptr, ptr }
%"class.std::ios_base" = type { ptr, i64, i64, i32, i32, i32, ptr, %"struct.std::ios_base::_Words", [8 x %"struct.std::ios_base::_Words"], i32, ptr, %"class.std::locale" }
%"struct.std::ios_base::_Words" = type { ptr, i64 }
%"class.std::locale" = type { ptr }
%"struct.boost::unit_test::(anonymous namespace)::unit_test_log_data_helper_impl" = type <{ i8, [3 x i8], i32, ptr, %"class.boost::shared_ptr", %"class.boost::shared_ptr.8", i8, [7 x i8] }>
%"class.boost::shared_ptr" = type { ptr, %"class.boost::detail::shared_count" }
%"class.boost::detail::shared_count" = type { ptr }
%"class.boost::shared_ptr.8" = type { ptr, %"class.boost::detail::shared_count" }
%"class.boost::io::ios_base_all_saver" = type { ptr, i32, i64, i64 }

@_ZSt4cout = external global %"class.std::basic_ostream", align 8

; Function Attrs: mustprogress nounwind uwtable
define linkonce_odr hidden void @_ZN5boost6detail12shared_countC2Ev(ptr noundef nonnull align 8 dereferenceable(8) %0) unnamed_addr #4 comdat align 2 {
  %2 = alloca ptr, align 8
  store ptr %0, ptr %2, align 8, !tbaa !3
  %3 = load ptr, ptr %2, align 8
  %4 = getelementptr inbounds nuw %"class.boost::detail::shared_count", ptr %3, i32 0, i32 0
  store ptr null, ptr %4, align 8, !tbaa !173
  ret void
}

; Function Attrs: mustprogress nounwind uwtable
define linkonce_odr hidden noundef i64 @_ZNKSt8ios_base5widthEv(ptr noundef nonnull align 8 dereferenceable(216) %0) #4 comdat align 2 {
  %2 = alloca ptr, align 8
  store ptr %0, ptr %2, align 8, !tbaa !3
  %3 = load ptr, ptr %2, align 8
  %4 = getelementptr inbounds nuw %"class.std::ios_base", ptr %3, i32 0, i32 2
  %5 = load i64, ptr %4, align 8, !tbaa !165
  ret i64 %5
}

; Function Attrs: mustprogress nounwind uwtable
define linkonce_odr hidden noundef i64 @_ZNKSt8ios_base9precisionEv(ptr noundef nonnull align 8 dereferenceable(216) %0) #4 comdat align 2 {
  %2 = alloca ptr, align 8
  store ptr %0, ptr %2, align 8, !tbaa !3
  %3 = load ptr, ptr %2, align 8
  %4 = getelementptr inbounds nuw %"class.std::ios_base", ptr %3, i32 0, i32 1
  %5 = load i64, ptr %4, align 8, !tbaa !170
  ret i64 %5
}

; Function Attrs: mustprogress nounwind uwtable
define linkonce_odr hidden noundef i32 @_ZNKSt8ios_base5flagsEv(ptr noundef nonnull align 8 dereferenceable(216) %0) #4 comdat align 2 {
  %2 = alloca ptr, align 8
  store ptr %0, ptr %2, align 8, !tbaa !3
  %3 = load ptr, ptr %2, align 8
  %4 = getelementptr inbounds nuw %"class.std::ios_base", ptr %3, i32 0, i32 3
  %5 = load i32, ptr %4, align 8, !tbaa !172
  ret i32 %5
}

; Function Attrs: mustprogress nounwind uwtable
define linkonce_odr hidden noundef ptr @_ZNK5boost10shared_ptrINS_9unit_test23unit_test_log_formatterEEptEv(ptr noundef nonnull align 8 dereferenceable(16) %0) #4 comdat align 2 {
  %2 = alloca ptr, align 8
  store ptr %0, ptr %2, align 8, !tbaa !3
  %3 = load ptr, ptr %2, align 8
  %4 = getelementptr inbounds nuw %"class.boost::shared_ptr.8", ptr %3, i32 0, i32 0
  %5 = load ptr, ptr %4, align 8, !tbaa !55
  ret ptr %5
}

; Function Attrs: mustprogress nounwind uwtable
define linkonce_odr hidden void @_ZN5boost10shared_ptrINS_9unit_test23unit_test_log_formatterEEC2Ev(ptr noundef nonnull align 8 dereferenceable(16) %0) unnamed_addr #4 comdat align 2 {
  %2 = alloca ptr, align 8
  store ptr %0, ptr %2, align 8, !tbaa !3
  %3 = load ptr, ptr %2, align 8
  %4 = getelementptr inbounds nuw %"class.boost::shared_ptr.8", ptr %3, i32 0, i32 0
  store ptr null, ptr %4, align 8, !tbaa !55
  %5 = getelementptr inbounds nuw %"class.boost::shared_ptr.8", ptr %3, i32 0, i32 1
  call void @_ZN5boost6detail12shared_countC2Ev(ptr noundef nonnull align 8 dereferenceable(8) %5) #3
  ret void
}

; Function Attrs: mustprogress uwtable
define linkonce_odr hidden void @_ZN5boost10shared_ptrINS_2io18ios_base_all_saverEEC2IS2_EEPT_(ptr noundef nonnull align 8 dereferenceable(16) %0, ptr noundef %1) unnamed_addr #5 comdat align 2 personality ptr @__gxx_personality_v0 {
  %3 = alloca ptr, align 8
  %4 = alloca ptr, align 8
  %5 = alloca ptr, align 8
  %6 = alloca i32, align 4
  store ptr %0, ptr %3, align 8, !tbaa !3
  store ptr %1, ptr %4, align 8, !tbaa !3
  %7 = load ptr, ptr %3, align 8
  %8 = getelementptr inbounds nuw %"class.boost::shared_ptr", ptr %7, i32 0, i32 0
  %9 = load ptr, ptr %4, align 8, !tbaa !3
  store ptr %9, ptr %8, align 8, !tbaa !77
  %10 = getelementptr inbounds nuw %"class.boost::shared_ptr", ptr %7, i32 0, i32 1
  call void @_ZN5boost6detail12shared_countC2Ev(ptr noundef nonnull align 8 dereferenceable(8) %10) #3
  %11 = load ptr, ptr %4, align 8, !tbaa !3
  %12 = getelementptr inbounds nuw %"class.boost::shared_ptr", ptr %7, i32 0, i32 1
  invoke void @_ZN5boost6detail20sp_pointer_constructINS_2io18ios_base_all_saverES3_EEvPNS_10shared_ptrIT_EEPT0_RNS0_12shared_countE(ptr noundef %7, ptr noundef %11, ptr noundef nonnull align 8 dereferenceable(8) %12)
          to label %13 unwind label %14

13:                                               ; preds = %2
  ret void

14:                                               ; preds = %2
  %15 = landingpad { ptr, i32 }
          cleanup
  %16 = extractvalue { ptr, i32 } %15, 0
  store ptr %16, ptr %5, align 8
  %17 = extractvalue { ptr, i32 } %15, 1
  store i32 %17, ptr %6, align 4
  call void @_ZN5boost6detail12shared_countD2Ev(ptr noundef nonnull align 8 dereferenceable(8) %10) #3
  br label %18

18:                                               ; preds = %14
  %19 = load ptr, ptr %5, align 8
  %20 = load i32, ptr %6, align 4
  %21 = insertvalue { ptr, i32 } poison, ptr %19, 0
  %22 = insertvalue { ptr, i32 } %21, i32 %20, 1
  resume { ptr, i32 } %22
}

; Function Attrs: mustprogress uwtable
define linkonce_odr hidden void @_ZN5boost2io18ios_base_all_saverC2ERSt8ios_base(ptr noundef nonnull align 8 dereferenceable(32) %0, ptr noundef nonnull align 8 dereferenceable(216) %1) unnamed_addr #5 comdat align 2 {
  %3 = alloca ptr, align 8
  %4 = alloca ptr, align 8
  store ptr %0, ptr %3, align 8, !tbaa !3
  store ptr %1, ptr %4, align 8, !tbaa !3
  %5 = load ptr, ptr %3, align 8
  %6 = getelementptr inbounds nuw %"class.boost::io::ios_base_all_saver", ptr %5, i32 0, i32 0
  %7 = load ptr, ptr %4, align 8, !tbaa !3
  store ptr %7, ptr %6, align 8, !tbaa !3
  %8 = getelementptr inbounds nuw %"class.boost::io::ios_base_all_saver", ptr %5, i32 0, i32 1
  %9 = load ptr, ptr %4, align 8, !tbaa !3
  %10 = call noundef i32 @_ZNKSt8ios_base5flagsEv(ptr noundef nonnull align 8 dereferenceable(216) %9)
  store i32 %10, ptr %8, align 8, !tbaa !83
  %11 = getelementptr inbounds nuw %"class.boost::io::ios_base_all_saver", ptr %5, i32 0, i32 2
  %12 = load ptr, ptr %4, align 8, !tbaa !3
  %13 = call noundef i64 @_ZNKSt8ios_base9precisionEv(ptr noundef nonnull align 8 dereferenceable(216) %12)
  store i64 %13, ptr %11, align 8, !tbaa !82
  %14 = getelementptr inbounds nuw %"class.boost::io::ios_base_all_saver", ptr %5, i32 0, i32 3
  %15 = load ptr, ptr %4, align 8, !tbaa !3
  %16 = call noundef i64 @_ZNKSt8ios_base5widthEv(ptr noundef nonnull align 8 dereferenceable(216) %15)
  store i64 %16, ptr %14, align 8, !tbaa !81
  ret void
}

; Function Attrs: mustprogress uwtable
define internal void @_ZN5boost9unit_test12_GLOBAL__N_130unit_test_log_data_helper_implC2EPNS0_23unit_test_log_formatterENS0_13output_formatEb(ptr noundef nonnull align 8 dereferenceable(49) %0, ptr noundef %1, i32 noundef %2, i1 noundef zeroext %3) unnamed_addr #5 align 2 personality ptr @__gxx_personality_v0 {
  %5 = alloca ptr, align 8
  %6 = alloca ptr, align 8
  %7 = alloca i32, align 4
  %8 = alloca i8, align 1
  %9 = alloca ptr, align 8
  %10 = alloca i32, align 4
  store ptr %0, ptr %5, align 8, !tbaa !3
  store ptr %1, ptr %6, align 8, !tbaa !3
  store i32 %2, ptr %7, align 4, !tbaa !93
  %11 = zext i1 %3 to i8
  store i8 %11, ptr %8, align 1, !tbaa !51
  %12 = load ptr, ptr %5, align 8
  %13 = getelementptr inbounds nuw %"struct.boost::unit_test::(anonymous namespace)::unit_test_log_data_helper_impl", ptr %12, i32 0, i32 0
  %14 = load i8, ptr %8, align 1, !tbaa !51, !range !35, !noundef !36
  %15 = trunc i8 %14 to i1
  %16 = zext i1 %15 to i8
  store i8 %16, ptr %13, align 8, !tbaa !45
  %17 = getelementptr inbounds nuw %"struct.boost::unit_test::(anonymous namespace)::unit_test_log_data_helper_impl", ptr %12, i32 0, i32 2
  %18 = load i32, ptr %7, align 4, !tbaa !93
  store i32 %18, ptr %17, align 4, !tbaa !94
  %19 = getelementptr inbounds nuw %"struct.boost::unit_test::(anonymous namespace)::unit_test_log_data_helper_impl", ptr %12, i32 0, i32 3
  store ptr @_ZSt4cout, ptr %19, align 8, !tbaa !56
  %20 = getelementptr inbounds nuw %"struct.boost::unit_test::(anonymous namespace)::unit_test_log_data_helper_impl", ptr %12, i32 0, i32 4
  %21 = call noalias noundef nonnull ptr @_Znwm(i64 noundef 32) #20
  %22 = load ptr, ptr @_ZSt4cout, align 8, !tbaa !25
  %23 = getelementptr i8, ptr %22, i64 -24
  %24 = load i64, ptr %23, align 8
  %25 = getelementptr inbounds i8, ptr @_ZSt4cout, i64 %24
  invoke void @_ZN5boost2io18ios_base_all_saverC2ERSt8ios_base(ptr noundef nonnull align 8 dereferenceable(32) %21, ptr noundef nonnull align 8 dereferenceable(216) %25)
          to label %26 unwind label %38

26:                                               ; preds = %4
  call void @_ZN5boost10shared_ptrINS_2io18ios_base_all_saverEEC2IS2_EEPT_(ptr noundef nonnull align 8 dereferenceable(16) %20, ptr noundef %21)
  %27 = getelementptr inbounds nuw %"struct.boost::unit_test::(anonymous namespace)::unit_test_log_data_helper_impl", ptr %12, i32 0, i32 5
  call void @_ZN5boost10shared_ptrINS_9unit_test23unit_test_log_formatterEEC2Ev(ptr noundef nonnull align 8 dereferenceable(16) %27) #3
  %28 = getelementptr inbounds nuw %"struct.boost::unit_test::(anonymous namespace)::unit_test_log_data_helper_impl", ptr %12, i32 0, i32 6
  store i8 0, ptr %28, align 8, !tbaa !38
  %29 = getelementptr inbounds nuw %"struct.boost::unit_test::(anonymous namespace)::unit_test_log_data_helper_impl", ptr %12, i32 0, i32 5
  %30 = load ptr, ptr %6, align 8, !tbaa !3
  invoke void @_ZN5boost10shared_ptrINS_9unit_test23unit_test_log_formatterEE5resetIS2_EEvPT_(ptr noundef nonnull align 8 dereferenceable(16) %29, ptr noundef %30)
          to label %31 unwind label %42

31:                                               ; preds = %26
  %32 = getelementptr inbounds nuw %"struct.boost::unit_test::(anonymous namespace)::unit_test_log_data_helper_impl", ptr %12, i32 0, i32 5
  %33 = call noundef ptr @_ZNK5boost10shared_ptrINS_9unit_test23unit_test_log_formatterEEptEv(ptr noundef nonnull align 8 dereferenceable(16) %32) #3
  %34 = load ptr, ptr %33, align 8, !tbaa !25
  %35 = getelementptr inbounds ptr, ptr %34, i64 20
  %36 = load ptr, ptr %35, align 8
  invoke void %36(ptr noundef nonnull align 8 dereferenceable(12) %33, i32 noundef 4)
          to label %37 unwind label %42

37:                                               ; preds = %31
  ret void

38:                                               ; preds = %4
  %39 = landingpad { ptr, i32 }
          cleanup
  %40 = extractvalue { ptr, i32 } %39, 0
  store ptr %40, ptr %9, align 8
  %41 = extractvalue { ptr, i32 } %39, 1
  store i32 %41, ptr %10, align 4
  call void @_ZdlPvm(ptr noundef %21, i64 noundef 32) #21
  br label %46

42:                                               ; preds = %31, %26
  %43 = landingpad { ptr, i32 }
          cleanup
  %44 = extractvalue { ptr, i32 } %43, 0
  store ptr %44, ptr %9, align 8
  %45 = extractvalue { ptr, i32 } %43, 1
  store i32 %45, ptr %10, align 4
  call void @_ZN5boost10shared_ptrINS_9unit_test23unit_test_log_formatterEED2Ev(ptr noundef nonnull align 8 dereferenceable(16) %27) #3
  call void @_ZN5boost10shared_ptrINS_2io18ios_base_all_saverEED2Ev(ptr noundef nonnull align 8 dereferenceable(16) %20) #3
  br label %46

46:                                               ; preds = %42, %38
  %47 = load ptr, ptr %9, align 8
  %48 = load i32, ptr %10, align 4
  %49 = insertvalue { ptr, i32 } poison, ptr %47, 0
  %50 = insertvalue { ptr, i32 } %49, i32 %48, 1
  resume { ptr, i32 } %50
}