; Function Attrs: mustprogress uwtable
define internal fastcc void @_ZN5boost9unit_test12_GLOBAL__N_130unit_test_log_data_helper_implC2EPNS0_23unit_test_log_formatterENS0_13output_formatEb(ptr noundef nonnull align 8 dereferenceable(49) %0, ptr noundef nonnull %1, i32 noundef range(i32 1, 5) %2, i1 noundef zeroext %3) unnamed_addr #4 align 2 personality ptr @__gxx_personality_v0 {
  %5 = zext i1 %3 to i8
  store i8 %5, ptr %0, align 8, !tbaa !51
  %6 = getelementptr inbounds nuw i8, ptr %0, i64 4
  store i32 %2, ptr %6, align 4, !tbaa !106
  %7 = getelementptr inbounds nuw i8, ptr %0, i64 8
  store ptr @_ZSt4cout, ptr %7, align 8, !tbaa !35
  %8 = getelementptr inbounds nuw i8, ptr %0, i64 16
  %9 = tail call noalias noundef nonnull dereferenceable(32) ptr @_Znwm(i64 noundef 32) #30
  %10 = load ptr, ptr @_ZSt4cout, align 8, !tbaa !33
  %11 = getelementptr i8, ptr %10, i64 -24
  %12 = load i64, ptr %11, align 8
  %13 = getelementptr inbounds i8, ptr @_ZSt4cout, i64 %12
  store ptr %13, ptr %9, align 8, !tbaa !4
  %14 = getelementptr inbounds nuw i8, ptr %9, i64 8
  %15 = getelementptr inbounds nuw i8, ptr %13, i64 24
  %16 = load i32, ptr %15, align 8, !tbaa !83
  store i32 %16, ptr %14, align 8, !tbaa !82
  %17 = getelementptr inbounds nuw i8, ptr %9, i64 16
  %18 = getelementptr inbounds nuw i8, ptr %13, i64 8
  %19 = load i64, ptr %18, align 8, !tbaa !81
  store i64 %19, ptr %17, align 8, !tbaa !80
  %20 = getelementptr inbounds nuw i8, ptr %9, i64 24
  %21 = getelementptr inbounds nuw i8, ptr %13, i64 16
  %22 = load i64, ptr %21, align 8, !tbaa !74
  store i64 %22, ptr %20, align 8, !tbaa !73
  store ptr %9, ptr %8, align 8, !tbaa !69
  %23 = getelementptr inbounds nuw i8, ptr %0, i64 24
  store ptr null, ptr %23, align 8, !tbaa !100
  invoke void @_ZN5boost6detail20sp_pointer_constructINS_2io18ios_base_all_saverES3_EEvPNS_10shared_ptrIT_EEPT0_RNS0_12shared_countE(ptr noundef nonnull align 8 dereferenceable(16) %8, ptr noundef nonnull %9, ptr noundef nonnull align 8 dereferenceable(8) %23)
          to label %_ZN5boost10shared_ptrINS_2io18ios_base_all_saverEEC2IS2_EEPT_.exit unwind label %24

common.resume:                                    ; preds = %33, %24
  %common.resume.op = phi { ptr, i32 } [ %25, %24 ], [ %34, %33 ]
  resume { ptr, i32 } %common.resume.op

24:                                               ; preds = %4
  %25 = landingpad { ptr, i32 }
          cleanup
  tail call void @_ZN5boost6detail12shared_countD2Ev(ptr noundef nonnull align 8 dereferenceable(8) %23) #27
  br label %common.resume

_ZN5boost10shared_ptrINS_2io18ios_base_all_saverEEC2IS2_EEPT_.exit: ; preds = %4
  %26 = getelementptr inbounds nuw i8, ptr %0, i64 32
  tail call void @llvm.memset.p0.i64(ptr noundef nonnull align 8 dereferenceable(17) %26, i8 0, i64 17, i1 false)
  invoke void @_ZN5boost10shared_ptrINS_9unit_test23unit_test_log_formatterEE5resetIS2_EEvPT_(ptr noundef nonnull align 8 dereferenceable(16) %26, ptr noundef nonnull %1)
          to label %27 unwind label %33

27:                                               ; preds = %_ZN5boost10shared_ptrINS_2io18ios_base_all_saverEEC2IS2_EEPT_.exit
  %28 = load ptr, ptr %26, align 8, !tbaa !30
  %29 = load ptr, ptr %28, align 8, !tbaa !33
  %30 = getelementptr inbounds i8, ptr %29, i64 160
  %31 = load ptr, ptr %30, align 8
  invoke void %31(ptr noundef nonnull align 8 dereferenceable(12) %28, i32 noundef 4)
          to label %32 unwind label %33

32:                                               ; preds = %27
  ret void

33:                                               ; preds = %27, %_ZN5boost10shared_ptrINS_2io18ios_base_all_saverEEC2IS2_EEPT_.exit
  %34 = landingpad { ptr, i32 }
          cleanup
  tail call void @_ZN5boost10shared_ptrINS_9unit_test23unit_test_log_formatterEED2Ev(ptr noundef nonnull align 8 dereferenceable(16) %26) #27
  tail call void @_ZN5boost10shared_ptrINS_2io18ios_base_all_saverEED2Ev(ptr noundef nonnull align 8 dereferenceable(16) %8) #27
  br label %common.resume
}